target datalayout = "e-m:e-p270:32:32-p271:32:32-p272:64:64-i64:64-i128:128-f80:128-n8:16:32:64-S128"
target triple = "x86_64-pc-linux-gnu"

; Function Attrs: mustprogress nounwind uwtable
define internal noundef nonnull align 8 dereferenceable(16) ptr @"_ZNSt9_Any_data9_M_accessINSt13__future_base12_Task_setterISt10unique_ptrINS1_7_ResultISt4pairIP11ggml_tensorbEEENS1_12_Result_base8_DeleterEENSt6thread8_InvokerISt5tupleIJZN18llama_model_loader13load_all_dataEP12ggml_contextRSt13unordered_mapIjP19ggml_backend_bufferSt4hashIjESt8equal_toIjESaIS5_IKjSL_EEEPSt6vectorIS3_I11llama_mlockSt14default_deleteISW_EESaISZ_EEPFbfPvES13_E3$_1EEEES8_EEEERT_v"(ptr noundef nonnull align 8 dereferenceable(16) %0) #0 align 2 {
  %2 = alloca ptr, align 8
  store ptr %0, ptr %2, align 8, !tbaa !1073
  %3 = load ptr, ptr %2, align 8
  %4 = call noundef ptr @_ZNSt9_Any_data9_M_accessEv(ptr noundef nonnull align 8 dereferenceable(16) %3) #25
  ret ptr %4
}

; Function Attrs: noinline noreturn nounwind uwtable
define linkonce_odr hidden void @__clang_call_terminate(ptr noundef %0) #12 comdat {
  %2 = call ptr @__cxa_begin_catch(ptr %0) #25
  call void @_ZSt9terminatev() #27
  unreachable
}

; Function Attrs: mustprogress nounwind uwtable
define internal void @"_ZNSt14_Function_base13_Base_managerINSt13__future_base12_Task_setterISt10unique_ptrINS1_7_ResultISt4pairIP11ggml_tensorbEEENS1_12_Result_base8_DeleterEENSt6thread8_InvokerISt5tupleIJZN18llama_model_loader13load_all_dataEP12ggml_contextRSt13unordered_mapIjP19ggml_backend_bufferSt4hashIjESt8equal_toIjESaIS5_IKjSL_EEEPSt6vectorIS3_I11llama_mlockSt14default_deleteISW_EESaISZ_EEPFbfPvES13_E3$_1EEEES8_EEE9_M_createIRKS19_EEvRSt9_Any_dataOT_St17integral_constantIbLb1EE"(ptr noundef nonnull align 8 dereferenceable(16) %0, ptr noundef nonnull align 8 dereferenceable(16) %1) #0 align 2 {
  %3 = alloca ptr, align 8
  %4 = alloca ptr, align 8
  store ptr %0, ptr %3, align 8, !tbaa !1073
  store ptr %1, ptr %4, align 8, !tbaa !1050
  %5 = load ptr, ptr %3, align 8, !tbaa !1073
  %6 = call noundef ptr @_ZNSt9_Any_data9_M_accessEv(ptr noundef nonnull align 8 dereferenceable(16) %5) #25
  %7 = load ptr, ptr %4, align 8, !tbaa !1050
  call void @llvm.memcpy.p0.p0.i64(ptr align 8 %6, ptr align 8 %7, i64 16, i1 false), !tbaa.struct !1077
  ret void
}

; Function Attrs: mustprogress nounwind uwtable
define linkonce_odr noundef ptr @_ZNKSt9_Any_data9_M_accessEv(ptr noundef nonnull align 8 dereferenceable(16) %0) #0 comdat align 2 {
  %2 = alloca ptr, align 8
  store ptr %0, ptr %2, align 8, !tbaa !1073
  %3 = load ptr, ptr %2, align 8
  %4 = getelementptr inbounds [16 x i8], ptr %3, i64 0, i64 0
  ret ptr %4
}

; Function Attrs: mustprogress nounwind uwtable
define internal void @"_ZNSt14_Function_base13_Base_managerINSt13__future_base12_Task_setterISt10unique_ptrINS1_7_ResultISt4pairIP11ggml_tensorbEEENS1_12_Result_base8_DeleterEENSt6thread8_InvokerISt5tupleIJZN18llama_model_loader13load_all_dataEP12ggml_contextRSt13unordered_mapIjP19ggml_backend_bufferSt4hashIjESt8equal_toIjESaIS5_IKjSL_EEEPSt6vectorIS3_I11llama_mlockSt14default_deleteISW_EESaISZ_EEPFbfPvES13_E3$_1EEEES8_EEE10_M_destroyERSt9_Any_dataSt17integral_constantIbLb1EE"(ptr noundef nonnull align 8 dereferenceable(16) %0) #0 align 2 {
  %2 = alloca ptr, align 8
  store ptr %0, ptr %2, align 8, !tbaa !1073
  %3 = load ptr, ptr %2, align 8, !tbaa !1073
  %4 = call noundef nonnull align 8 dereferenceable(16) ptr @"_ZNSt9_Any_data9_M_accessINSt13__future_base12_Task_setterISt10unique_ptrINS1_7_ResultISt4pairIP11ggml_tensorbEEENS1_12_Result_base8_DeleterEENSt6thread8_InvokerISt5tupleIJZN18llama_model_loader13load_all_dataEP12ggml_contextRSt13unordered_mapIjP19ggml_backend_bufferSt4hashIjESt8equal_toIjESaIS5_IKjSL_EEEPSt6vectorIS3_I11llama_mlockSt14default_deleteISW_EESaISZ_EEPFbfPvES13_E3$_1EEEES8_EEEERT_v"(ptr noundef nonnull align 8 dereferenceable(16) %3) #25
  ret void
}

; Function Attrs: mustprogress nounwind uwtable
define internal void @"_ZNSt14_Function_base13_Base_managerINSt13__future_base12_Task_setterISt10unique_ptrINS1_7_ResultISt4pairIP11ggml_tensorbEEENS1_12_Result_base8_DeleterEENSt6thread8_InvokerISt5tupleIJZN18llama_model_loader13load_all_dataEP12ggml_contextRSt13unordered_mapIjP19ggml_backend_bufferSt4hashIjESt8equal_toIjESaIS5_IKjSL_EEEPSt6vectorIS3_I11llama_mlockSt14default_deleteISW_EESaISZ_EEPFbfPvES13_E3$_1EEEES8_EEE15_M_init_functorIRKS19_EEvRSt9_Any_dataOT_"(ptr noundef nonnull align 8 dereferenceable(16) %0, ptr noundef nonnull align 8 dereferenceable(16) %1) #0 align 2 personality ptr @__gxx_personality_v0 {
  %3 = alloca ptr, align 8
  %4 = alloca ptr, align 8
  store ptr %0, ptr %3, align 8, !tbaa !1073
  store ptr %1, ptr %4, align 8, !tbaa !1050
  %5 = load ptr, ptr %3, align 8, !tbaa !1073
  %6 = load ptr, ptr %4, align 8, !tbaa !1050
  invoke void @"_ZNSt14_Function_base13_Base_managerINSt13__future_base12_Task_setterISt10unique_ptrINS1_7_ResultISt4pairIP11ggml_tensorbEEENS1_12_Result_base8_DeleterEENSt6thread8_InvokerISt5tupleIJZN18llama_model_loader13load_all_dataEP12ggml_contextRSt13unordered_mapIjP19ggml_backend_bufferSt4hashIjESt8equal_toIjESaIS5_IKjSL_EEEPSt6vectorIS3_I11llama_mlockSt14default_deleteISW_EESaISZ_EEPFbfPvES13_E3$_1EEEES8_EEE9_M_createIRKS19_EEvRSt9_Any_dataOT_St17integral_constantIbLb1EE"(ptr noundef nonnull align 8 dereferenceable(16) %5, ptr noundef nonnull align 8 dereferenceable(16) %6)
          to label %7 unwind label %8

7:                                                ; preds = %2
  ret void

8:                                                ; preds = %2
  %9 = landingpad { ptr, i32 }
          catch ptr null
  %10 = extractvalue { ptr, i32 } %9, 0
  call void @__clang_call_terminate(ptr %10) #27
  unreachable
}

; Function Attrs: mustprogress nounwind uwtable
define internal noundef nonnull align 8 dereferenceable(16) ptr @"_ZNKSt9_Any_data9_M_accessINSt13__future_base12_Task_setterISt10unique_ptrINS1_7_ResultISt4pairIP11ggml_tensorbEEENS1_12_Result_base8_DeleterEENSt6thread8_InvokerISt5tupleIJZN18llama_model_loader13load_all_dataEP12ggml_contextRSt13unordered_mapIjP19ggml_backend_bufferSt4hashIjESt8equal_toIjESaIS5_IKjSL_EEEPSt6vectorIS3_I11llama_mlockSt14default_deleteISW_EESaISZ_EEPFbfPvES13_E3$_1EEEES8_EEEERKT_v"(ptr noundef nonnull align 8 dereferenceable(16) %0) #0 align 2 {
  %2 = alloca ptr, align 8
  store ptr %0, ptr %2, align 8, !tbaa !1073
  %3 = load ptr, ptr %2, align 8
  %4 = call noundef ptr @_ZNKSt9_Any_data9_M_accessEv(ptr noundef nonnull align 8 dereferenceable(16) %3) #25
  ret ptr %4
}

; Function Attrs: mustprogress nounwind uwtable
define linkonce_odr noundef ptr @_ZNSt9_Any_data9_M_accessEv(ptr noundef nonnull align 8 dereferenceable(16) %0) #0 comdat align 2 {
  %2 = alloca ptr, align 8
  store ptr %0, ptr %2, align 8, !tbaa !1073
  %3 = load ptr, ptr %2, align 8
  %4 = getelementptr inbounds [16 x i8], ptr %3, i64 0, i64 0
  ret ptr %4
}

; Function Attrs: mustprogress uwtable
define internal noundef zeroext i1 @"_ZNSt14_Function_base13_Base_managerINSt13__future_base12_Task_setterISt10unique_ptrINS1_7_ResultISt4pairIP11ggml_tensorbEEENS1_12_Result_base8_DeleterEENSt6thread8_InvokerISt5tupleIJZN18llama_model_loader13load_all_dataEP12ggml_contextRSt13unordered_mapIjP19ggml_backend_bufferSt4hashIjESt8equal_toIjESaIS5_IKjSL_EEEPSt6vectorIS3_I11llama_mlockSt14default_deleteISW_EESaISZ_EEPFbfPvES13_E3$_1EEEES8_EEE10_M_managerERSt9_Any_dataRKS1B_St18_Manager_operation"(ptr noundef nonnull align 8 dereferenceable(16) %0, ptr noundef nonnull align 8 dereferenceable(16) %1, i32 noundef %2) #1 align 2 {
  %4 = alloca ptr, align 8
  %5 = alloca ptr, align 8
  %6 = alloca i32, align 4
  store ptr %0, ptr %4, align 8, !tbaa !1073
  store ptr %1, ptr %5, align 8, !tbaa !1073
  store i32 %2, ptr %6, align 4, !tbaa !1075
  %7 = load i32, ptr %6, align 4, !tbaa !1075
  switch i32 %7, label %22 [
    i32 0, label %8
    i32 1, label %11
    i32 2, label %16
    i32 3, label %20
  ]

8:                                                ; preds = %3
  %9 = load ptr, ptr %4, align 8, !tbaa !1073
  %10 = call noundef nonnull align 8 dereferenceable(8) ptr @_ZNSt9_Any_data9_M_accessIPKSt9type_infoEERT_v(ptr noundef nonnull align 8 dereferenceable(16) %9) #25
  store ptr @"_ZTINSt13__future_base12_Task_setterISt10unique_ptrINS_7_ResultISt4pairIP11ggml_tensorbEEENS_12_Result_base8_DeleterEENSt6thread8_InvokerISt5tupleIJZN18llama_model_loader13load_all_dataEP12ggml_contextRSt13unordered_mapIjP19ggml_backend_bufferSt4hashIjESt8equal_toIjESaIS3_IKjSJ_EEEPSt6vectorIS1_I11llama_mlockSt14default_deleteISU_EESaISX_EEPFbfPvES11_E3$_1EEEES6_EE", ptr %10, align 8, !tbaa !958
  br label %22

11:                                               ; preds = %3
  %12 = load ptr, ptr %5, align 8, !tbaa !1073
  %13 = call noundef ptr @"_ZNSt14_Function_base13_Base_managerINSt13__future_base12_Task_setterISt10unique_ptrINS1_7_ResultISt4pairIP11ggml_tensorbEEENS1_12_Result_base8_DeleterEENSt6thread8_InvokerISt5tupleIJZN18llama_model_loader13load_all_dataEP12ggml_contextRSt13unordered_mapIjP19ggml_backend_bufferSt4hashIjESt8equal_toIjESaIS5_IKjSL_EEEPSt6vectorIS3_I11llama_mlockSt14default_deleteISW_EESaISZ_EEPFbfPvES13_E3$_1EEEES8_EEE14_M_get_pointerERKSt9_Any_data"(ptr noundef nonnull align 8 dereferenceable(16) %12) #25
  %14 = load ptr, ptr %4, align 8, !tbaa !1073
  %15 = call noundef nonnull align 8 dereferenceable(8) ptr @"_ZNSt9_Any_data9_M_accessIPNSt13__future_base12_Task_setterISt10unique_ptrINS1_7_ResultISt4pairIP11ggml_tensorbEEENS1_12_Result_base8_DeleterEENSt6thread8_InvokerISt5tupleIJZN18llama_model_loader13load_all_dataEP12ggml_contextRSt13unordered_mapIjP19ggml_backend_bufferSt4hashIjESt8equal_toIjESaIS5_IKjSL_EEEPSt6vectorIS3_I11llama_mlockSt14default_deleteISW_EESaISZ_EEPFbfPvES13_E3$_1EEEES8_EEEERT_v"(ptr noundef nonnull align 8 dereferenceable(16) %14) #25
  store ptr %13, ptr %15, align 8, !tbaa !1050
  br label %22

16:                                               ; preds = %3
  %17 = load ptr, ptr %4, align 8, !tbaa !1073
  %18 = load ptr, ptr %5, align 8, !tbaa !1073
  %19 = call noundef ptr @"_ZNSt14_Function_base13_Base_managerINSt13__future_base12_Task_setterISt10unique_ptrINS1_7_ResultISt4pairIP11ggml_tensorbEEENS1_12_Result_base8_DeleterEENSt6thread8_InvokerISt5tupleIJZN18llama_model_loader13load_all_dataEP12ggml_contextRSt13unordered_mapIjP19ggml_backend_bufferSt4hashIjESt8equal_toIjESaIS5_IKjSL_EEEPSt6vectorIS3_I11llama_mlockSt14default_deleteISW_EESaISZ_EEPFbfPvES13_E3$_1EEEES8_EEE14_M_get_pointerERKSt9_Any_data"(ptr noundef nonnull align 8 dereferenceable(16) %18) #25
  call void @"_ZNSt14_Function_base13_Base_managerINSt13__future_base12_Task_setterISt10unique_ptrINS1_7_ResultISt4pairIP11ggml_tensorbEEENS1_12_Result_base8_DeleterEENSt6thread8_InvokerISt5tupleIJZN18llama_model_loader13load_all_dataEP12ggml_contextRSt13unordered_mapIjP19ggml_backend_bufferSt4hashIjESt8equal_toIjESaIS5_IKjSL_EEEPSt6vectorIS3_I11llama_mlockSt14default_deleteISW_EESaISZ_EEPFbfPvES13_E3$_1EEEES8_EEE15_M_init_functorIRKS19_EEvRSt9_Any_dataOT_"(ptr noundef nonnull align 8 dereferenceable(16) %17, ptr noundef nonnull align 8 dereferenceable(16) %19) #25
  br label %22

20:                                               ; preds = %3
  %21 = load ptr, ptr %4, align 8, !tbaa !1073
  call void @"_ZNSt14_Function_base13_Base_managerINSt13__future_base12_Task_setterISt10unique_ptrINS1_7_ResultISt4pairIP11ggml_tensorbEEENS1_12_Result_base8_DeleterEENSt6thread8_InvokerISt5tupleIJZN18llama_model_loader13load_all_dataEP12ggml_contextRSt13unordered_mapIjP19ggml_backend_bufferSt4hashIjESt8equal_toIjESaIS5_IKjSL_EEEPSt6vectorIS3_I11llama_mlockSt14default_deleteISW_EESaISZ_EEPFbfPvES13_E3$_1EEEES8_EEE10_M_destroyERSt9_Any_dataSt17integral_constantIbLb1EE"(ptr noundef nonnull align 8 dereferenceable(16) %21)
  br label %22

22:                                               ; preds = %3, %20, %16, %11, %8
  ret i1 false
}

; Function Attrs: mustprogress nounwind uwtable
define internal noundef nonnull align 8 dereferenceable(8) ptr @"_ZNSt9_Any_data9_M_accessIPNSt13__future_base12_Task_setterISt10unique_ptrINS1_7_ResultISt4pairIP11ggml_tensorbEEENS1_12_Result_base8_DeleterEENSt6thread8_InvokerISt5tupleIJZN18llama_model_loader13load_all_dataEP12ggml_contextRSt13unordered_mapIjP19ggml_backend_bufferSt4hashIjESt8equal_toIjESaIS5_IKjSL_EEEPSt6vectorIS3_I11llama_mlockSt14default_deleteISW_EESaISZ_EEPFbfPvES13_E3$_1EEEES8_EEEERT_v"(ptr noundef nonnull align 8 dereferenceable(16) %0) #0 align 2 {
  %2 = alloca ptr, align 8
  store ptr %0, ptr %2, align 8, !tbaa !1073
  %3 = load ptr, ptr %2, align 8
  %4 = call noundef ptr @_ZNSt9_Any_data9_M_accessEv(ptr noundef nonnull align 8 dereferenceable(16) %3) #25
  ret ptr %4
}

; Function Attrs: mustprogress nounwind uwtable
define internal noundef ptr @"_ZNSt14_Function_base13_Base_managerINSt13__future_base12_Task_setterISt10unique_ptrINS1_7_ResultISt4pairIP11ggml_tensorbEEENS1_12_Result_base8_DeleterEENSt6thread8_InvokerISt5tupleIJZN18llama_model_loader13load_all_dataEP12ggml_contextRSt13unordered_mapIjP19ggml_backend_bufferSt4hashIjESt8equal_toIjESaIS5_IKjSL_EEEPSt6vectorIS3_I11llama_mlockSt14default_deleteISW_EESaISZ_EEPFbfPvES13_E3$_1EEEES8_EEE14_M_get_pointerERKSt9_Any_data"(ptr noundef nonnull align 8 dereferenceable(16) %0) #0 align 2 {
  %2 = alloca ptr, align 8
  %3 = alloca ptr, align 8
  store ptr %0, ptr %2, align 8, !tbaa !1073
  call void @llvm.lifetime.start.p0(i64 8, ptr %3) #25
  %4 = load ptr, ptr %2, align 8, !tbaa !1073
  %5 = call noundef nonnull align 8 dereferenceable(16) ptr @"_ZNKSt9_Any_data9_M_accessINSt13__future_base12_Task_setterISt10unique_ptrINS1_7_ResultISt4pairIP11ggml_tensorbEEENS1_12_Result_base8_DeleterEENSt6thread8_InvokerISt5tupleIJZN18llama_model_loader13load_all_dataEP12ggml_contextRSt13unordered_mapIjP19ggml_backend_bufferSt4hashIjESt8equal_toIjESaIS5_IKjSL_EEEPSt6vectorIS3_I11llama_mlockSt14default_deleteISW_EESaISZ_EEPFbfPvES13_E3$_1EEEES8_EEEERKT_v"(ptr noundef nonnull align 8 dereferenceable(16) %4) #25
  store ptr %5, ptr %3, align 8, !tbaa !1050
  %6 = load ptr, ptr %3, align 8, !tbaa !1050
  call void @llvm.lifetime.end.p0(i64 8, ptr %3) #25
  ret ptr %6
}

; Function Attrs: mustprogress nounwind uwtable
define linkonce_odr noundef nonnull align 8 dereferenceable(8) ptr @_ZNSt9_Any_data9_M_accessIPKSt9type_infoEERT_v(ptr noundef nonnull align 8 dereferenceable(16) %0) #0 comdat align 2 {
  %2 = alloca ptr, align 8
  store ptr %0, ptr %2, align 8, !tbaa !1073
  %3 = load ptr, ptr %2, align 8
  %4 = call noundef ptr @_ZNSt9_Any_data9_M_accessEv(ptr noundef nonnull align 8 dereferenceable(16) %3) #25
  ret ptr %4
}

; Function Attrs: mustprogress uwtable
define internal noundef zeroext i1 @"_ZNSt17_Function_handlerIFSt10unique_ptrINSt13__future_base12_Result_baseENS2_8_DeleterEEvENS1_12_Task_setterIS0_INS1_7_ResultISt4pairIP11ggml_tensorbEEES3_ENSt6thread8_InvokerISt5tupleIJZN18llama_model_loader13load_all_dataEP12ggml_contextRSt13unordered_mapIjP19ggml_backend_bufferSt4hashIjESt8equal_toIjESaIS8_IKjSM_EEEPSt6vectorIS0_I11llama_mlockSt14default_deleteISX_EESaIS10_EEPFbfPvES14_E3$_1EEEESB_EEE10_M_managerERSt9_Any_dataRKS1C_St18_Manager_operation"(ptr noundef nonnull align 8 dereferenceable(16) %0, ptr noundef nonnull align 8 dereferenceable(16) %1, i32 noundef %2) #1 align 2 {
  %4 = alloca ptr, align 8
  %5 = alloca ptr, align 8
  %6 = alloca i32, align 4
  store ptr %0, ptr %4, align 8, !tbaa !1073
  store ptr %1, ptr %5, align 8, !tbaa !1073
  store i32 %2, ptr %6, align 4, !tbaa !1075
  %7 = load i32, ptr %6, align 4, !tbaa !1075
  switch i32 %7, label %16 [
    i32 0, label %8
    i32 1, label %11
  ]

8:                                                ; preds = %3
  %9 = load ptr, ptr %4, align 8, !tbaa !1073
  %10 = call noundef nonnull align 8 dereferenceable(8) ptr @_ZNSt9_Any_data9_M_accessIPKSt9type_infoEERT_v(ptr noundef nonnull align 8 dereferenceable(16) %9) #25
  store ptr @"_ZTINSt13__future_base12_Task_setterISt10unique_ptrINS_7_ResultISt4pairIP11ggml_tensorbEEENS_12_Result_base8_DeleterEENSt6thread8_InvokerISt5tupleIJZN18llama_model_loader13load_all_dataEP12ggml_contextRSt13unordered_mapIjP19ggml_backend_bufferSt4hashIjESt8equal_toIjESaIS3_IKjSJ_EEEPSt6vectorIS1_I11llama_mlockSt14default_deleteISU_EESaISX_EEPFbfPvES11_E3$_1EEEES6_EE", ptr %10, align 8, !tbaa !958
  br label %21

11:                                               ; preds = %3
  %12 = load ptr, ptr %5, align 8, !tbaa !1073
  %13 = call noundef ptr @"_ZNSt14_Function_base13_Base_managerINSt13__future_base12_Task_setterISt10unique_ptrINS1_7_ResultISt4pairIP11ggml_tensorbEEENS1_12_Result_base8_DeleterEENSt6thread8_InvokerISt5tupleIJZN18llama_model_loader13load_all_dataEP12ggml_contextRSt13unordered_mapIjP19ggml_backend_bufferSt4hashIjESt8equal_toIjESaIS5_IKjSL_EEEPSt6vectorIS3_I11llama_mlockSt14default_deleteISW_EESaISZ_EEPFbfPvES13_E3$_1EEEES8_EEE14_M_get_pointerERKSt9_Any_data"(ptr noundef nonnull align 8 dereferenceable(16) %12) #25
  %14 = load ptr, ptr %4, align 8, !tbaa !1073
  %15 = call noundef nonnull align 8 dereferenceable(8) ptr @"_ZNSt9_Any_data9_M_accessIPNSt13__future_base12_Task_setterISt10unique_ptrINS1_7_ResultISt4pairIP11ggml_tensorbEEENS1_12_Result_base8_DeleterEENSt6thread8_InvokerISt5tupleIJZN18llama_model_loader13load_all_dataEP12ggml_contextRSt13unordered_mapIjP19ggml_backend_bufferSt4hashIjESt8equal_toIjESaIS5_IKjSL_EEEPSt6vectorIS3_I11llama_mlockSt14default_deleteISW_EESaISZ_EEPFbfPvES13_E3$_1EEEES8_EEEERT_v"(ptr noundef nonnull align 8 dereferenceable(16) %14) #25
  store ptr %13, ptr %15, align 8, !tbaa !1050
  br label %21

16:                                               ; preds = %3
  %17 = load ptr, ptr %4, align 8, !tbaa !1073
  %18 = load ptr, ptr %5, align 8, !tbaa !1073
  %19 = load i32, ptr %6, align 4, !tbaa !1075
  %20 = call noundef zeroext i1 @"_ZNSt14_Function_base13_Base_managerINSt13__future_base12_Task_setterISt10unique_ptrINS1_7_ResultISt4pairIP11ggml_tensorbEEENS1_12_Result_base8_DeleterEENSt6thread8_InvokerISt5tupleIJZN18llama_model_loader13load_all_dataEP12ggml_contextRSt13unordered_mapIjP19ggml_backend_bufferSt4hashIjESt8equal_toIjESaIS5_IKjSL_EEEPSt6vectorIS3_I11llama_mlockSt14default_deleteISW_EESaISZ_EEPFbfPvES13_E3$_1EEEES8_EEE10_M_managerERSt9_Any_dataRKS1B_St18_Manager_operation"(ptr noundef nonnull align 8 dereferenceable(16) %17, ptr noundef nonnull align 8 dereferenceable(16) %18, i32 noundef %19)
  br label %21

21:                                               ; preds = %16, %11, %8
  ret i1 false
}