; Function Attrs: mustprogress nofree norecurse nosync nounwind willreturn memory(argmem: readwrite) uwtable
define internal noundef zeroext i1 @"_ZNSt17_Function_handlerIFSt10unique_ptrINSt13__future_base12_Result_baseENS2_8_DeleterEEvENS1_12_Task_setterIS0_INS1_7_ResultISt4pairIP11ggml_tensorbEEES3_ENSt6thread8_InvokerISt5tupleIJZN18llama_model_loader13load_all_dataEP12ggml_contextRSt13unordered_mapIjP19ggml_backend_bufferSt4hashIjESt8equal_toIjESaIS8_IKjSM_EEEPSt6vectorIS0_I11llama_mlockSt14default_deleteISX_EESaIS10_EEPFbfPvES14_E3$_1EEEESB_EEE10_M_managerERSt9_Any_dataRKS1C_St18_Manager_operation"(ptr noundef nonnull writeonly align 8 captures(none) dereferenceable(16) %0, ptr noundef nonnull align 8 dereferenceable(16) %1, i32 noundef %2) #26 align 2 personality ptr @__gxx_personality_v0 {
  switch i32 %2, label %"_ZNSt14_Function_base13_Base_managerINSt13__future_base12_Task_setterISt10unique_ptrINS1_7_ResultISt4pairIP11ggml_tensorbEEENS1_12_Result_base8_DeleterEENSt6thread8_InvokerISt5tupleIJZN18llama_model_loader13load_all_dataEP12ggml_contextRSt13unordered_mapIjP19ggml_backend_bufferSt4hashIjESt8equal_toIjESaIS5_IKjSL_EEEPSt6vectorIS3_I11llama_mlockSt14default_deleteISW_EESaISZ_EEPFbfPvES13_E3$_1EEEES8_EEE10_M_managerERSt9_Any_dataRKS1B_St18_Manager_operation.exit" [
    i32 0, label %4
    i32 1, label %5
    i32 2, label %6
  ]

4:                                                ; preds = %3
  store ptr @"_ZTINSt13__future_base12_Task_setterISt10unique_ptrINS_7_ResultISt4pairIP11ggml_tensorbEEENS_12_Result_base8_DeleterEENSt6thread8_InvokerISt5tupleIJZN18llama_model_loader13load_all_dataEP12ggml_contextRSt13unordered_mapIjP19ggml_backend_bufferSt4hashIjESt8equal_toIjESaIS3_IKjSJ_EEEPSt6vectorIS1_I11llama_mlockSt14default_deleteISU_EESaISX_EEPFbfPvES11_E3$_1EEEES6_EE", ptr %0, align 8, !tbaa !459
  br label %"_ZNSt14_Function_base13_Base_managerINSt13__future_base12_Task_setterISt10unique_ptrINS1_7_ResultISt4pairIP11ggml_tensorbEEENS1_12_Result_base8_DeleterEENSt6thread8_InvokerISt5tupleIJZN18llama_model_loader13load_all_dataEP12ggml_contextRSt13unordered_mapIjP19ggml_backend_bufferSt4hashIjESt8equal_toIjESaIS5_IKjSL_EEEPSt6vectorIS3_I11llama_mlockSt14default_deleteISW_EESaISZ_EEPFbfPvES13_E3$_1EEEES8_EEE10_M_managerERSt9_Any_dataRKS1B_St18_Manager_operation.exit"

5:                                                ; preds = %3
  store ptr %1, ptr %0, align 8, !tbaa !461
  br label %"_ZNSt14_Function_base13_Base_managerINSt13__future_base12_Task_setterISt10unique_ptrINS1_7_ResultISt4pairIP11ggml_tensorbEEENS1_12_Result_base8_DeleterEENSt6thread8_InvokerISt5tupleIJZN18llama_model_loader13load_all_dataEP12ggml_contextRSt13unordered_mapIjP19ggml_backend_bufferSt4hashIjESt8equal_toIjESaIS5_IKjSL_EEEPSt6vectorIS3_I11llama_mlockSt14default_deleteISW_EESaISZ_EEPFbfPvES13_E3$_1EEEES8_EEE10_M_managerERSt9_Any_dataRKS1B_St18_Manager_operation.exit"

6:                                                ; preds = %3
  tail call void @llvm.memcpy.p0.p0.i64(ptr noundef nonnull align 8 dereferenceable(16) %0, ptr noundef nonnull readonly align 8 dereferenceable(16) %1, i64 16, i1 false), !tbaa.struct !463
  br label %"_ZNSt14_Function_base13_Base_managerINSt13__future_base12_Task_setterISt10unique_ptrINS1_7_ResultISt4pairIP11ggml_tensorbEEENS1_12_Result_base8_DeleterEENSt6thread8_InvokerISt5tupleIJZN18llama_model_loader13load_all_dataEP12ggml_contextRSt13unordered_mapIjP19ggml_backend_bufferSt4hashIjESt8equal_toIjESaIS5_IKjSL_EEEPSt6vectorIS3_I11llama_mlockSt14default_deleteISW_EESaISZ_EEPFbfPvES13_E3$_1EEEES8_EEE10_M_managerERSt9_Any_dataRKS1B_St18_Manager_operation.exit"

"_ZNSt14_Function_base13_Base_managerINSt13__future_base12_Task_setterISt10unique_ptrINS1_7_ResultISt4pairIP11ggml_tensorbEEENS1_12_Result_base8_DeleterEENSt6thread8_InvokerISt5tupleIJZN18llama_model_loader13load_all_dataEP12ggml_contextRSt13unordered_mapIjP19ggml_backend_bufferSt4hashIjESt8equal_toIjESaIS5_IKjSL_EEEPSt6vectorIS3_I11llama_mlockSt14default_deleteISW_EESaISZ_EEPFbfPvES13_E3$_1EEEES8_EEE10_M_managerERSt9_Any_dataRKS1B_St18_Manager_operation.exit": ; preds = %3, %6, %5, %4
  ret i1 false
}